; ModuleID = 'source-C-CXX/9/495.cpp'
source_filename = "source-C-CXX/9/495.cpp"
target datalayout = "e-m:e-p270:32:32-p271:32:32-p272:64:64-i64:64-f80:128-n8:16:32:64-S128"
target triple = "x86_64-pc-linux-gnu"

%"class.std::ios_base::Init" = type { i8 }
%"class.std::basic_istream" = type { i32 (...)**, i64, %"class.std::basic_ios" }
%"class.std::basic_ios" = type { %"class.std::ios_base", %"class.std::basic_ostream"*, i8, i8, %"class.std::basic_streambuf"*, %"class.std::ctype"*, %"class.std::num_put"*, %"class.std::num_get"* }
%"class.std::ios_base" = type { i32 (...)**, i64, i64, i32, i32, i32, %"struct.std::ios_base::_Callback_list"*, %"struct.std::ios_base::_Words", [8 x %"struct.std::ios_base::_Words"], i32, %"struct.std::ios_base::_Words"*, %"class.std::locale" }
%"struct.std::ios_base::_Callback_list" = type { %"struct.std::ios_base::_Callback_list"*, void (i32, %"class.std::ios_base"*, i32)*, i32, i32 }
%"struct.std::ios_base::_Words" = type { i8*, i64 }
%"class.std::locale" = type { %"class.std::locale::_Impl"* }
%"class.std::locale::_Impl" = type { i32, %"class.std::locale::facet"**, i64, %"class.std::locale::facet"**, i8** }
%"class.std::locale::facet" = type <{ i32 (...)**, i32, [4 x i8] }>
%"class.std::basic_ostream" = type { i32 (...)**, %"class.std::basic_ios" }
%"class.std::basic_streambuf" = type { i32 (...)**, i8*, i8*, i8*, i8*, i8*, i8*, %"class.std::locale" }
%"class.std::ctype" = type <{ %"class.std::locale::facet.base", [4 x i8], %struct.__locale_struct*, i8, [7 x i8], i32*, i32*, i16*, i8, [256 x i8], [256 x i8], i8, [6 x i8] }>
%"class.std::locale::facet.base" = type <{ i32 (...)**, i32 }>
%struct.__locale_struct = type { [13 x %struct.__locale_data*], i16*, i32*, i32*, [13 x i8*] }
%struct.__locale_data = type opaque
%"class.std::num_put" = type { %"class.std::locale::facet.base", [4 x i8] }
%"class.std::num_get" = type { %"class.std::locale::facet.base", [4 x i8] }

@_ZStL8__ioinit = internal global %"class.std::ios_base::Init" zeroinitializer, align 1
@__dso_handle = external hidden global i8
@_ZSt3cin = external global %"class.std::basic_istream", align 8
@.str = private unnamed_addr constant [3 x i8] c"%d\00", align 1
@llvm.global_ctors = appending global [1 x { i32, void ()*, i8* }] [{ i32, void ()*, i8* } { i32 65535, void ()* @_GLOBAL__sub_I_495.cpp, i8* null }]

declare void @_ZNSt8ios_base4InitC1Ev(%"class.std::ios_base::Init"* nonnull align 1 dereferenceable(1)) unnamed_addr #0

; Function Attrs: nounwind
declare void @_ZNSt8ios_base4InitD1Ev(%"class.std::ios_base::Init"* nonnull align 1 dereferenceable(1)) unnamed_addr #1

; Function Attrs: nofree nounwind
declare i32 @__cxa_atexit(void (i8*)*, i8*, i8*) local_unnamed_addr #2

; Function Attrs: mustprogress norecurse sspstrong uwtable
define dso_local i32 @main() local_unnamed_addr #3 {
  %1 = alloca i32, align 4
  %2 = alloca [30 x i32], align 16
  %3 = alloca [30 x i32], align 16
  %4 = bitcast i32* %1 to i8*
  call void @llvm.lifetime.start.p0i8(i64 4, i8* nonnull %4) #8
  %5 = call nonnull align 8 dereferenceable(16) %"class.std::basic_istream"* @_ZNSirsERi(%"class.std::basic_istream"* nonnull align 8 dereferenceable(16) @_ZSt3cin, i32* nonnull align 4 dereferenceable(4) %1)
  %6 = bitcast [30 x i32]* %2 to i8*
  call void @llvm.lifetime.start.p0i8(i64 120, i8* nonnull %6) #8
  %7 = bitcast [30 x i32]* %3 to i8*
  call void @llvm.lifetime.start.p0i8(i64 120, i8* nonnull %7) #8
  call void @llvm.memset.p0i8.i64(i8* noundef nonnull align 16 dereferenceable(120) %7, i8 0, i64 120, i1 false)
  %8 = load i32, i32* %1, align 4, !tbaa !5
  %9 = icmp sgt i32 %8, 0
  br i1 %9, label %12, label %10

10:                                               ; preds = %0
  %11 = getelementptr inbounds [30 x i32], [30 x i32]* %3, i64 0, i64 0
  store i32 1, i32* %11, align 16, !tbaa !5
  br label %79

12:                                               ; preds = %0, %12
  %13 = phi i64 [ %16, %12 ], [ 0, %0 ]
  %14 = getelementptr inbounds [30 x i32], [30 x i32]* %2, i64 0, i64 %13
  %15 = call nonnull align 8 dereferenceable(16) %"class.std::basic_istream"* @_ZNSirsERi(%"class.std::basic_istream"* nonnull align 8 dereferenceable(16) @_ZSt3cin, i32* nonnull align 4 dereferenceable(4) %14)
  %16 = add nuw nsw i64 %13, 1
  %17 = load i32, i32* %1, align 4, !tbaa !5
  %18 = sext i32 %17 to i64
  %19 = icmp slt i64 %16, %18
  br i1 %19, label %12, label %20, !llvm.loop !9

20:                                               ; preds = %12
  %21 = getelementptr inbounds [30 x i32], [30 x i32]* %3, i64 0, i64 0
  store i32 1, i32* %21, align 16, !tbaa !5
  %22 = icmp sgt i32 %17, 1
  br i1 %22, label %23, label %79

23:                                               ; preds = %20
  %24 = zext i32 %17 to i64
  br label %25

25:                                               ; preds = %23, %72
  %26 = phi i64 [ 0, %23 ], [ %78, %72 ]
  %27 = phi i64 [ 1, %23 ], [ %76, %72 ]
  %28 = add i64 %26, 1
  %29 = getelementptr inbounds [30 x i32], [30 x i32]* %2, i64 0, i64 %27
  %30 = load i32, i32* %29, align 4, !tbaa !5
  %31 = and i64 %28, 1
  %32 = icmp eq i64 %26, 0
  br i1 %32, label %56, label %33

33:                                               ; preds = %25
  %34 = and i64 %28, -2
  br label %35

35:                                               ; preds = %95, %33
  %36 = phi i64 [ %27, %33 ], [ %97, %95 ]
  %37 = phi i32 [ 0, %33 ], [ %96, %95 ]
  %38 = phi i64 [ %34, %33 ], [ %98, %95 ]
  %39 = add i64 %36, 4294967295
  %40 = and i64 %39, 4294967295
  %41 = getelementptr inbounds [30 x i32], [30 x i32]* %2, i64 0, i64 %40
  %42 = load i32, i32* %41, align 4, !tbaa !5
  %43 = icmp sgt i32 %30, %42
  br i1 %43, label %49, label %44

44:                                               ; preds = %35
  %45 = getelementptr inbounds [30 x i32], [30 x i32]* %3, i64 0, i64 %40
  %46 = load i32, i32* %45, align 4, !tbaa !5
  %47 = icmp slt i32 %37, %46
  %48 = select i1 %47, i32 %46, i32 %37
  br label %49

49:                                               ; preds = %44, %35
  %50 = phi i32 [ %37, %35 ], [ %48, %44 ]
  %51 = add i64 %36, 4294967294
  %52 = and i64 %51, 4294967295
  %53 = getelementptr inbounds [30 x i32], [30 x i32]* %2, i64 0, i64 %52
  %54 = load i32, i32* %53, align 4, !tbaa !5
  %55 = icmp sgt i32 %30, %54
  br i1 %55, label %95, label %90

56:                                               ; preds = %95, %25
  %57 = phi i32 [ undef, %25 ], [ %96, %95 ]
  %58 = phi i64 [ %27, %25 ], [ %97, %95 ]
  %59 = phi i32 [ 0, %25 ], [ %96, %95 ]
  %60 = icmp eq i64 %31, 0
  br i1 %60, label %72, label %61

61:                                               ; preds = %56
  %62 = add i64 %58, 4294967295
  %63 = and i64 %62, 4294967295
  %64 = getelementptr inbounds [30 x i32], [30 x i32]* %2, i64 0, i64 %63
  %65 = load i32, i32* %64, align 4, !tbaa !5
  %66 = icmp sgt i32 %30, %65
  br i1 %66, label %72, label %67

67:                                               ; preds = %61
  %68 = getelementptr inbounds [30 x i32], [30 x i32]* %3, i64 0, i64 %63
  %69 = load i32, i32* %68, align 4, !tbaa !5
  %70 = icmp slt i32 %59, %69
  %71 = select i1 %70, i32 %69, i32 %59
  br label %72

72:                                               ; preds = %67, %61, %56
  %73 = phi i32 [ %57, %56 ], [ %59, %61 ], [ %71, %67 ]
  %74 = add nsw i32 %73, 1
  %75 = getelementptr inbounds [30 x i32], [30 x i32]* %3, i64 0, i64 %27
  store i32 %74, i32* %75, align 4, !tbaa !5
  %76 = add nuw nsw i64 %27, 1
  %77 = icmp eq i64 %76, %24
  %78 = add i64 %26, 1
  br i1 %77, label %79, label %25, !llvm.loop !11

79:                                               ; preds = %72, %10, %20
  %80 = phi i32 [ %8, %10 ], [ %17, %20 ], [ %17, %72 ]
  %81 = getelementptr inbounds [30 x i32], [30 x i32]* %3, i64 0, i64 0
  %82 = sext i32 %80 to i64
  %83 = getelementptr inbounds [30 x i32], [30 x i32]* %3, i64 0, i64 %82
  call void @_Z4sortPiS_(i32* nonnull %81, i32* nonnull %83)
  %84 = load i32, i32* %1, align 4, !tbaa !5
  %85 = add nsw i32 %84, -1
  %86 = sext i32 %85 to i64
  %87 = getelementptr inbounds [30 x i32], [30 x i32]* %3, i64 0, i64 %86
  %88 = load i32, i32* %87, align 4, !tbaa !5
  %89 = call i32 (i8*, ...) @printf(i8* nonnull dereferenceable(1) getelementptr inbounds ([3 x i8], [3 x i8]* @.str, i64 0, i64 0), i32 %88)
  call void @llvm.lifetime.end.p0i8(i64 120, i8* nonnull %7) #8
  call void @llvm.lifetime.end.p0i8(i64 120, i8* nonnull %6) #8
  call void @llvm.lifetime.end.p0i8(i64 4, i8* nonnull %4) #8
  ret i32 0

90:                                               ; preds = %49
  %91 = getelementptr inbounds [30 x i32], [30 x i32]* %3, i64 0, i64 %52
  %92 = load i32, i32* %91, align 4, !tbaa !5
  %93 = icmp slt i32 %50, %92
  %94 = select i1 %93, i32 %92, i32 %50
  br label %95

95:                                               ; preds = %90, %49
  %96 = phi i32 [ %50, %49 ], [ %94, %90 ]
  %97 = add nsw i64 %36, -2
  %98 = add i64 %38, -2
  %99 = icmp eq i64 %98, 0
  br i1 %99, label %56, label %35, !llvm.loop !12
}

; Function Attrs: argmemonly mustprogress nofree nosync nounwind willreturn
declare void @llvm.lifetime.start.p0i8(i64 immarg, i8* nocapture) #4

declare nonnull align 8 dereferenceable(16) %"class.std::basic_istream"* @_ZNSirsERi(%"class.std::basic_istream"* nonnull align 8 dereferenceable(16), i32* nonnull align 4 dereferenceable(4)) local_unnamed_addr #0

; Function Attrs: argmemonly mustprogress nofree nounwind willreturn writeonly
declare void @llvm.memset.p0i8.i64(i8* nocapture writeonly, i8, i64, i1 immarg) #5

; Function Attrs: argmemonly mustprogress nofree nosync nounwind willreturn
declare void @llvm.lifetime.end.p0i8(i64 immarg, i8* nocapture) #4

declare void @_Z4sortPiS_(i32*, i32*) local_unnamed_addr #0

; Function Attrs: nofree nounwind
declare noundef i32 @printf(i8* nocapture noundef readonly, ...) local_unnamed_addr #6

; Function Attrs: sspstrong uwtable
define internal void @_GLOBAL__sub_I_495.cpp() #7 section ".text.startup" {
  tail call void @_ZNSt8ios_base4InitC1Ev(%"class.std::ios_base::Init"* nonnull align 1 dereferenceable(1) @_ZStL8__ioinit)
  %1 = tail call i32 @__cxa_atexit(void (i8*)* bitcast (void (%"class.std::ios_base::Init"*)* @_ZNSt8ios_base4InitD1Ev to void (i8*)*), i8* getelementptr inbounds (%"class.std::ios_base::Init", %"class.std::ios_base::Init"* @_ZStL8__ioinit, i64 0, i32 0), i8* nonnull @__dso_handle) #8
  ret void
}


!llvm.module.flags = !{!0, !1, !2, !3}
!llvm.ident = !{!4}

!0 = !{i32 1, !"wchar_size", i32 4}
!1 = !{i32 7, !"PIC Level", i32 2}
!2 = !{i32 7, !"PIE Level", i32 2}
!3 = !{i32 7, !"uwtable", i32 1}
!4 = !{!"clang version 13.0.0"}
!5 = !{!6, !6, i64 0}
!6 = !{!"int", !7, i64 0}
!7 = !{!"omnipotent char", !8, i64 0}
!8 = !{!"Simple C++ TBAA"}
!9 = distinct !{!9, !10}
!10 = !{!"llvm.loop.mustprogress"}
!11 = distinct !{!11, !10}
!12 = distinct !{!12, !10}
